Certificate:
    Data:
        Version: 3 (0x2)
        Serial Number: 2 (0x2)
        Signature Algorithm: sha256WithRSAEncryption
        Issuer: C=CN, ST=HN, L=ZZ, O=1303, OU=gjb, CN=gjb/emailAddress=2@e.com
        Validity
            Not Before: Mar 11 08:44:26 2024 GMT
            Not After : Jun 19 08:44:26 2024 GMT
        Subject: C=CN, ST=HN, O=1303, OU=BC, CN=zkx/emailAddress=2@e.com
        Subject Public Key Info:
            Public Key Algorithm: rsaEncryption
                RSA Public-Key: (2048 bit)
                Modulus:
                    00:a3:9b:22:dd:fe:26:78:31:07:7a:d2:08:11:06:
                    34:6a:11:c2:9a:42:7d:e3:24:63:6c:09:22:99:45:
                    62:a4:01:53:ff:d2:88:39:5b:81:78:e2:c2:31:51:
                    89:f7:8a:e0:cc:5a:71:4b:1d:98:a7:dc:90:73:de:
                    5d:c9:6d:c5:53:3f:ba:ba:dd:94:e5:25:5e:2d:0b:
                    57:f1:f7:d2:cd:88:bf:48:da:0f:4a:46:01:43:3a:
                    25:6c:9c:40:c5:d6:ba:b2:a7:4e:23:ee:a8:62:42:
                    3b:de:85:f1:56:36:8a:f1:ab:8e:fc:44:b5:ee:b6:
                    4b:40:75:aa:d3:9d:2b:73:49:1f:f7:4a:f8:d9:65:
                    ba:3a:fa:22:dd:27:cd:30:54:67:4e:34:7c:61:af:
                    95:9d:a2:5d:a2:16:54:dd:ab:1c:8d:6b:5c:2e:75:
                    dc:4e:39:cd:7c:86:f5:e1:1b:27:b2:b0:2c:27:fa:
                    8a:3e:0e:97:49:df:5f:e7:73:e7:5c:3d:a2:b2:86:
                    7c:5f:e4:30:a9:ce:75:e7:73:4d:7b:e6:7f:89:72:
                    2b:a7:fb:bd:61:b8:d2:02:1f:83:f5:98:50:ca:e8:
                    5f:f0:8f:d2:7c:3f:9a:50:e5:97:5e:06:69:f8:b9:
                    7c:49:59:c6:13:ed:c2:58:39:d2:ea:31:39:f2:ae:
                    21:6d
                Exponent: 65537 (0x10001)
        X509v3 extensions:
            X509v3 Basic Constraints: 
                CA:FALSE
            X509v3 Subject Key Identifier: 
                BB:AD:96:1C:A1:05:10:FC:7C:7D:BC:5A:AD:C4:24:40:8F:35:DD:83
            X509v3 Authority Key Identifier: 
                keyid:42:76:C0:F8:89:0D:4B:B3:D3:D1:36:15:11:07:8C:3E:C8:82:2C:69

    Signature Algorithm: sha256WithRSAEncryption
         61:67:07:93:5b:da:8c:8d:4b:f0:9f:34:9a:41:f2:d1:6d:84:
         cc:5f:2d:6b:87:cd:54:fb:d1:f0:85:0b:1d:f9:7c:01:25:cc:
         ba:67:06:22:60:a3:30:98:66:69:9f:8c:78:1e:36:d2:f4:b2:
         04:33:f8:ea:0e:bd:a8:5c:18:77:64:4f:65:b2:25:75:0b:43:
         1e:b8:ea:91:5e:16:fc:20:2b:91:2d:55:62:6f:28:04:92:ba:
         df:0f:1b:64:f2:84:39:71:b6:15:1f:bb:80:98:fb:90:8e:08:
         40:46:1a:a9:60:df:52:04:39:23:77:aa:e9:7a:f7:80:d5:2b:
         41:22:f8:84:37:cf:74:b7:7e:56:bc:3f:2b:49:d3:19:cc:37:
         80:1c:04:b2:6f:ed:c4:dc:a5:9c:d9:05:1e:c2:7e:95:25:b1:
         fe:fc:52:62:80:4c:88:65:34:4b:13:c9:fc:59:7c:aa:e5:cf:
         11:91:9e:08:39:39:a8:b4:90:f3:5f:aa:10:9e:5f:47:38:7b:
         1f:9c:f2:e7:5d:24:68:dd:3a:a8:e0:ae:f0:df:ad:64:84:1a:
         0e:18:8d:cb:3a:ad:83:f1:3c:e7:1f:f4:35:f1:b3:16:ec:ef:
         37:57:a7:5f:a8:e8:4d:22:d7:f8:dd:bd:18:bb:56:45:b5:14:
         fd:e6:fb:6c
-----BEGIN CERTIFICATE-----
MIIDjjCCAnagAwIBAgIBAjANBgkqhkiG9w0BAQsFADBqMQswCQYDVQQGEwJDTjEL
MAkGA1UECAwCSE4xCzAJBgNVBAcMAlpaMQ0wCwYDVQQKDAQxMzAzMQwwCgYDVQQL
DANnamIxDDAKBgNVBAMMA2dqYjEWMBQGCSqGSIb3DQEJARYHMkBlLmNvbTAeFw0y
NDAzMTEwODQ0MjZaFw0yNDA2MTkwODQ0MjZaMFwxCzAJBgNVBAYTAkNOMQswCQYD
VQQIDAJITjENMAsGA1UECgwEMTMwMzELMAkGA1UECwwCQkMxDDAKBgNVBAMMA3pr
eDEWMBQGCSqGSIb3DQEJARYHMkBlLmNvbTCCASIwDQYJKoZIhvcNAQEBBQADggEP
ADCCAQoCggEBAKObIt3+JngxB3rSCBEGNGoRwppCfeMkY2wJIplFYqQBU//SiDlb
gXjiwjFRifeK4MxacUsdmKfckHPeXcltxVM/urrdlOUlXi0LV/H30s2Iv0jaD0pG
AUM6JWycQMXWurKnTiPuqGJCO96F8VY2ivGrjvxEte62S0B1qtOdK3NJH/dK+Nll
ujr6It0nzTBUZ040fGGvlZ2iXaIWVN2rHI1rXC513E45zXyG9eEbJ7KwLCf6ij4O
l0nfX+dz51w9orKGfF/kMKnOdedzTXvmf4lyK6f7vWG40gIfg/WYUMroX/CP0nw/
mlDll14Gafi5fElZxhPtwlg50uoxOfKuIW0CAwEAAaNNMEswCQYDVR0TBAIwADAd
BgNVHQ4EFgQUu62WHKEFEPx8fbxarcQkQI813YMwHwYDVR0jBBgwFoAUQnbA+IkN
S7PT0TYVEQeMPsiCLGkwDQYJKoZIhvcNAQELBQADggEBAGFnB5Nb2oyNS/CfNJpB
8tFthMxfLWuHzVT70fCFCx35fAElzLpnBiJgozCYZmmfjHgeNtL0sgQz+OoOvahc
GHdkT2WyJXULQx646pFeFvwgK5EtVWJvKASSut8PG2TyhDlxthUfu4CY+5COCEBG
Gqlg31IEOSN3qul694DVK0Ei+IQ3z3S3fla8PytJ0xnMN4AcBLJv7cTcpZzZBR7C
fpUlsf78UmKATIhlNEsTyfxZfKrlzxGRngg5Oai0kPNfqhCeX0c4ex+c8uddJGjd
OqjgrvDfrWSEGg4Yjcs6rYPxPOcf9DXxsxbs7zdXp1+o6E0i1/jdvRi7VkW1FP3m
+2w=
-----END CERTIFICATE-----
