Certificate:
    Data:
        Version: 3 (0x2)
        Serial Number: 3 (0x3)
        Signature Algorithm: sha256WithRSAEncryption
        Issuer: C=CN, ST=HN, L=ZZ, O=1303, OU=gjb, CN=gjb/emailAddress=2@e.com
        Validity
            Not Before: Mar 11 09:18:52 2024 GMT
            Not After : Jun 19 09:18:52 2024 GMT
        Subject: C=CN, ST=HN, O=1303, OU=BC, CN=qwe/emailAddress=2@q.com
        Subject Public Key Info:
            Public Key Algorithm: rsaEncryption
                RSA Public-Key: (2048 bit)
                Modulus:
                    00:bd:26:97:92:41:cc:f3:4b:9b:fc:c4:2c:f7:f4:
                    73:45:d6:e9:90:9f:77:9b:b9:b9:40:fb:ff:94:b5:
                    32:14:97:bf:76:4d:9d:01:54:18:61:fa:91:31:87:
                    1b:4e:02:35:be:1a:40:80:ac:4b:49:17:8a:de:43:
                    f8:a6:43:c5:c8:0f:26:46:d7:ca:66:d9:29:05:fe:
                    b0:9f:52:3a:aa:22:da:be:9b:a7:09:ec:f7:33:c9:
                    8d:1a:47:27:5e:bc:4b:67:5b:d5:de:d7:8c:e0:9d:
                    3f:b2:04:ea:76:c3:12:96:51:82:45:8a:28:3d:f0:
                    d4:89:16:b2:98:ad:75:a0:be:be:a9:16:84:b3:fd:
                    10:28:68:45:a7:b3:a6:84:fb:25:fe:77:7c:cf:30:
                    24:37:87:ca:ef:25:b4:2f:7b:76:a5:ce:92:ea:48:
                    b7:39:80:d6:e0:e3:98:a9:da:bd:43:11:b9:11:37:
                    b0:f6:13:4e:62:7f:ad:91:0f:5e:95:1b:44:f7:6c:
                    c5:79:63:2f:3e:65:61:00:01:ae:25:89:df:2a:72:
                    96:d0:44:13:f8:08:32:7b:6a:1e:50:79:b3:30:bc:
                    d8:5f:b5:4e:1d:d9:90:98:fc:30:23:8f:f2:b2:08:
                    53:27:4b:3a:18:ba:04:70:de:34:3a:5f:3f:3f:a4:
                    11:97
                Exponent: 65537 (0x10001)
        X509v3 extensions:
            parent_address: 
                ....I.3..........S....
            X509v3 Basic Constraints: 
                CA:FALSE
            X509v3 Subject Key Identifier: 
                15:41:E6:1E:DB:61:7A:25:5D:01:14:C9:57:DF:4C:40:CC:82:52:2D
            X509v3 Authority Key Identifier: 
                keyid:42:76:C0:F8:89:0D:4B:B3:D3:D1:36:15:11:07:8C:3E:C8:82:2C:69

    Signature Algorithm: sha256WithRSAEncryption
         3b:97:b6:e6:3d:fb:83:3f:ed:ec:e2:19:00:83:86:f6:69:6a:
         68:fa:17:81:ba:a6:48:0a:d6:13:d4:53:e3:e7:d6:f0:99:97:
         4a:25:6b:0f:85:96:ae:39:33:6c:34:0b:c0:b4:80:67:c0:b5:
         36:59:51:1a:60:31:6a:00:ee:b9:46:33:a5:4b:f7:db:de:dd:
         ea:12:ec:c8:21:55:89:d4:38:59:d7:b0:cc:ec:3b:90:6f:a5:
         ac:bb:06:55:a9:1d:f5:e2:19:b6:58:64:6b:74:c0:be:b4:6b:
         3a:a9:27:de:05:1e:8b:7e:8c:d8:8d:39:e1:78:71:f4:0d:34:
         f4:ff:d4:62:70:c7:bd:bb:5b:93:68:01:65:9b:b7:6d:74:ad:
         e0:69:5b:a1:ae:9b:60:d7:4a:98:32:5d:fc:81:ef:a3:be:1e:
         94:bd:e0:9b:16:45:6e:ab:71:7b:33:76:dd:d0:88:8f:4e:1f:
         47:75:ec:a0:69:68:83:91:fd:cd:e2:8e:db:59:d8:2b:81:f1:
         d3:a6:86:bc:7d:81:9f:60:8c:b6:64:39:b1:20:0b:9b:14:09:
         f6:5a:d1:6e:c0:d3:55:6e:66:5b:35:8d:90:93:2a:1e:5b:75:
         56:0e:1e:64:8a:c0:38:12:5d:11:55:72:23:7b:7c:45:61:22:
         63:19:7e:34
-----BEGIN CERTIFICATE-----
MIIDsDCCApigAwIBAgIBAzANBgkqhkiG9w0BAQsFADBqMQswCQYDVQQGEwJDTjEL
MAkGA1UECAwCSE4xCzAJBgNVBAcMAlpaMQ0wCwYDVQQKDAQxMzAzMQwwCgYDVQQL
DANnamIxDDAKBgNVBAMMA2dqYjEWMBQGCSqGSIb3DQEJARYHMkBlLmNvbTAeFw0y
NDAzMTEwOTE4NTJaFw0yNDA2MTkwOTE4NTJaMFwxCzAJBgNVBAYTAkNOMQswCQYD
VQQIDAJITjENMAsGA1UECgwEMTMwMzELMAkGA1UECwwCQkMxDDAKBgNVBAMMA3F3
ZTEWMBQGCSqGSIb3DQEJARYHMkBxLmNvbTCCASIwDQYJKoZIhvcNAQEBBQADggEP
ADCCAQoCggEBAL0ml5JBzPNLm/zELPf0c0XW6ZCfd5u5uUD7/5S1MhSXv3ZNnQFU
GGH6kTGHG04CNb4aQICsS0kXit5D+KZDxcgPJkbXymbZKQX+sJ9SOqoi2r6bpwns
9zPJjRpHJ168S2db1d7XjOCdP7IE6nbDEpZRgkWKKD3w1IkWspitdaC+vqkWhLP9
EChoRaezpoT7Jf53fM8wJDeHyu8ltC97dqXOkupItzmA1uDjmKnavUMRuRE3sPYT
TmJ/rZEPXpUbRPdsxXljLz5lYQABriWJ3ypyltBEE/gIMntqHlB5szC82F+1Th3Z
kJj8MCOP8rIIUydLOhi6BHDeNDpfPz+kEZcCAwEAAaNvMG0wIAYGKoVwcyEBBBYU
FBy+SfAzpBYUkhK8zJaB81PV1fQQMAkGA1UdEwQCMAAwHQYDVR0OBBYEFBVB5h7b
YXolXQEUyVffTEDMglItMB8GA1UdIwQYMBaAFEJ2wPiJDUuz09E2FREHjD7Igixp
MA0GCSqGSIb3DQEBCwUAA4IBAQA7l7bmPfuDP+3s4hkAg4b2aWpo+heBuqZICtYT
1FPj59bwmZdKJWsPhZauOTNsNAvAtIBnwLU2WVEaYDFqAO65RjOlS/fb3t3qEuzI
IVWJ1DhZ17DM7DuQb6WsuwZVqR314hm2WGRrdMC+tGs6qSfeBR6LfozYjTnheHH0
DTT0/9RicMe9u1uTaAFlm7dtdK3gaVuhrptg10qYMl38ge+jvh6UveCbFkVuq3F7
M3bd0IiPTh9HdeygaWiDkf3N4o7bWdgrgfHTpoa8fYGfYIy2ZDmxIAubFAn2WtFu
wNNVbmZbNY2QkyoeW3VWDh5kisA4El0RVXIje3xFYSJjGX40
-----END CERTIFICATE-----
