Certificate:
    Data:
        Version: 3 (0x2)
        Serial Number: 4 (0x4)
        Signature Algorithm: sha256WithRSAEncryption
        Issuer: C=CN, ST=HN, L=ZZ, O=1303, OU=gjb, CN=gjb/emailAddress=2@e.com
        Validity
            Not Before: Mar 11 11:53:02 2024 GMT
            Not After : Jun 19 11:53:02 2024 GMT
        Subject: C=CN, ST=HN, O=1303, OU=BC, CN=lzy/emailAddress=2@r.com
        Subject Public Key Info:
            Public Key Algorithm: rsaEncryption
                RSA Public-Key: (2048 bit)
                Modulus:
                    00:e1:80:e6:1b:9a:e6:03:3a:a2:95:ec:4e:2a:df:
                    f6:f6:15:58:e0:9c:b2:28:2a:98:f7:83:c8:be:12:
                    24:c7:56:da:b1:2a:ff:b6:93:92:53:6f:e3:2c:72:
                    7a:13:54:b2:73:84:2a:bb:ec:16:08:96:45:f7:b0:
                    92:ed:6a:f3:97:06:e9:61:b9:f1:fe:8e:04:dd:5a:
                    4e:b8:7e:ae:f3:87:44:40:a2:07:59:18:50:9d:6b:
                    87:cb:f7:37:74:32:96:1e:6f:93:60:1e:0a:f4:04:
                    f1:76:d4:06:44:08:51:dc:22:f0:be:60:eb:53:7d:
                    17:4a:b7:43:d9:e3:c3:39:a5:9d:af:88:e3:df:3b:
                    b0:2d:3d:ed:46:99:de:2d:65:c0:c8:fb:1a:ad:6d:
                    3a:e2:93:a6:34:60:31:4f:08:b4:b1:31:0c:8e:8b:
                    42:5c:ca:04:74:b0:d8:a8:6d:e4:f2:4b:cd:db:d3:
                    a4:7a:fe:89:d1:44:32:15:e8:3c:40:b4:28:c5:d5:
                    a7:91:81:2d:83:43:62:38:f5:ff:08:ac:51:19:59:
                    f8:b9:a9:00:90:71:94:2b:b2:41:ba:75:91:a5:d2:
                    7c:37:f9:ce:ca:53:c1:00:a0:7a:1a:de:15:0c:fd:
                    3f:71:93:b5:ca:2b:5d:fd:b3:78:37:33:ca:3d:b1:
                    58:e7
                Exponent: 65537 (0x10001)
        X509v3 extensions:
            parent_address: 
                ....I.3..........S....
            X509v3 Basic Constraints: 
                CA:FALSE
            X509v3 Subject Key Identifier: 
                E8:2C:AC:1E:33:1D:B2:08:24:74:A8:C6:DC:74:4A:A8:81:4F:6A:CA
            X509v3 Authority Key Identifier: 
                keyid:42:76:C0:F8:89:0D:4B:B3:D3:D1:36:15:11:07:8C:3E:C8:82:2C:69

    Signature Algorithm: sha256WithRSAEncryption
         a6:71:f1:d9:4e:c0:34:23:ec:59:e7:e2:5a:b9:15:ad:ed:e7:
         7a:97:ee:ac:88:7d:1c:38:5a:92:e3:70:92:85:7c:22:17:c0:
         60:84:73:b1:02:7e:e5:d2:25:d7:8d:ca:98:08:b8:44:b0:2b:
         89:0b:75:f5:30:23:2f:fe:b9:93:69:6b:db:d8:ac:61:a7:98:
         2f:c2:be:7f:d3:9f:36:26:50:68:de:61:42:42:04:87:a7:a4:
         02:6b:e5:f4:1e:c1:0f:80:63:0c:05:cb:e0:0b:53:a2:fc:23:
         f8:2b:94:dc:6e:4b:78:42:72:b3:14:5b:95:8c:c4:c9:8c:44:
         fe:41:53:66:44:a3:71:cd:ab:c5:ee:1c:5f:cf:31:09:24:a8:
         e1:c8:b1:a1:71:a5:39:c9:9a:79:da:18:ff:46:33:af:e1:a2:
         29:da:21:f9:be:c5:ff:a4:3b:59:ab:a2:38:c8:1e:f1:f6:bd:
         96:8d:77:e6:7b:5e:4c:d7:25:3c:54:44:08:bf:e1:c4:f4:a5:
         83:d7:66:a4:0b:98:a2:e3:b0:21:ea:31:15:61:01:a9:59:6e:
         17:ce:cb:65:0b:0e:e3:41:5c:31:89:6b:cb:36:86:48:a0:c5:
         b8:6e:77:00:00:fd:40:6c:ff:ce:dc:08:62:05:26:da:eb:74:
         49:e7:71:53
-----BEGIN CERTIFICATE-----
MIIDsDCCApigAwIBAgIBBDANBgkqhkiG9w0BAQsFADBqMQswCQYDVQQGEwJDTjEL
MAkGA1UECAwCSE4xCzAJBgNVBAcMAlpaMQ0wCwYDVQQKDAQxMzAzMQwwCgYDVQQL
DANnamIxDDAKBgNVBAMMA2dqYjEWMBQGCSqGSIb3DQEJARYHMkBlLmNvbTAeFw0y
NDAzMTExMTUzMDJaFw0yNDA2MTkxMTUzMDJaMFwxCzAJBgNVBAYTAkNOMQswCQYD
VQQIDAJITjENMAsGA1UECgwEMTMwMzELMAkGA1UECwwCQkMxDDAKBgNVBAMMA2x6
eTEWMBQGCSqGSIb3DQEJARYHMkByLmNvbTCCASIwDQYJKoZIhvcNAQEBBQADggEP
ADCCAQoCggEBAOGA5hua5gM6opXsTirf9vYVWOCcsigqmPeDyL4SJMdW2rEq/7aT
klNv4yxyehNUsnOEKrvsFgiWRfewku1q85cG6WG58f6OBN1aTrh+rvOHRECiB1kY
UJ1rh8v3N3Qylh5vk2AeCvQE8XbUBkQIUdwi8L5g61N9F0q3Q9njwzmlna+I4987
sC097UaZ3i1lwMj7Gq1tOuKTpjRgMU8ItLExDI6LQlzKBHSw2Kht5PJLzdvTpHr+
idFEMhXoPEC0KMXVp5GBLYNDYjj1/wisURlZ+LmpAJBxlCuyQbp1kaXSfDf5zspT
wQCgehreFQz9P3GTtcorXf2zeDczyj2xWOcCAwEAAaNvMG0wIAYGKoVwcyEBBBYU
FBy+SfAzpBYUkhK8zJaB81PV1fQQMAkGA1UdEwQCMAAwHQYDVR0OBBYEFOgsrB4z
HbIIJHSoxtx0SqiBT2rKMB8GA1UdIwQYMBaAFEJ2wPiJDUuz09E2FREHjD7Igixp
MA0GCSqGSIb3DQEBCwUAA4IBAQCmcfHZTsA0I+xZ5+JauRWt7ed6l+6siH0cOFqS
43CShXwiF8BghHOxAn7l0iXXjcqYCLhEsCuJC3X1MCMv/rmTaWvb2Kxhp5gvwr5/
0582JlBo3mFCQgSHp6QCa+X0HsEPgGMMBcvgC1Oi/CP4K5Tcbkt4QnKzFFuVjMTJ
jET+QVNmRKNxzavF7hxfzzEJJKjhyLGhcaU5yZp52hj/RjOv4aIp2iH5vsX/pDtZ
q6I4yB7x9r2WjXfme15M1yU8VEQIv+HE9KWD12akC5ii47Ah6jEVYQGpWW4Xzstl
Cw7jQVwxiWvLNoZIoMW4bncAAP1AbP/O3AhiBSba63RJ53FT
-----END CERTIFICATE-----
