Certificate:
    Data:
        Version: 3 (0x2)
        Serial Number: 5 (0x5)
        Signature Algorithm: sha256WithRSAEncryption
        Issuer: C=CN, ST=HN, L=ZZ, O=1303, OU=gjb, CN=gjb/emailAddress=2@e.com
        Validity
            Not Before: Mar 11 12:09:47 2024 GMT
            Not After : Jun 19 12:09:47 2024 GMT
        Subject: C=CN, ST=HN, O=1303, OU=BC, CN=wsl/emailAddress=5@q.com
        Subject Public Key Info:
            Public Key Algorithm: rsaEncryption
                RSA Public-Key: (2048 bit)
                Modulus:
                    00:a1:1f:13:34:92:ff:9c:89:09:2c:8c:05:48:9f:
                    5b:0f:e7:d9:de:e1:63:39:ff:cd:30:e9:3b:18:8d:
                    9e:52:40:27:18:b5:e8:3a:03:a2:b9:48:c1:5d:a0:
                    de:95:21:0b:25:0d:3c:3b:57:4e:7a:55:62:4c:01:
                    45:cc:5d:75:98:3e:d1:30:79:d8:96:60:9c:27:20:
                    78:95:6b:e3:9f:f6:75:75:2b:18:9c:4d:cd:aa:4f:
                    e3:89:50:52:28:a0:96:84:c6:80:a0:1c:25:6e:e9:
                    d0:77:ee:cc:62:a9:73:2d:c3:86:9c:e0:73:d9:a0:
                    c9:b5:9c:55:37:71:95:83:13:03:a0:7f:ac:8d:4a:
                    43:9f:a6:67:6d:9f:e7:ef:77:38:ed:b3:c5:81:68:
                    9f:d1:41:4f:2e:bb:92:e3:69:c1:ff:48:6a:4b:8a:
                    e2:c0:21:b9:6c:40:7e:e6:2f:83:f4:48:8c:a6:71:
                    90:eb:19:90:05:21:ba:31:1c:32:5d:b9:dc:13:be:
                    78:93:d4:f2:ee:c4:4b:41:16:c7:0c:46:62:03:a6:
                    32:8d:f6:46:a7:34:32:ad:9b:43:8c:3d:76:8c:2a:
                    76:c9:2a:d1:ef:3a:77:71:5d:28:d5:79:a5:6b:5c:
                    98:77:75:0c:66:ba:17:3d:a2:74:64:cd:3d:7f:60:
                    78:87
                Exponent: 65537 (0x10001)
        X509v3 extensions:
            parent_address: 
                ....I.3..........S....
            X509v3 Basic Constraints: 
                CA:FALSE
            X509v3 Subject Key Identifier: 
                6B:A0:58:E1:92:9C:2B:CE:6E:FD:A1:78:F8:87:F6:7E:55:32:7D:90
            X509v3 Authority Key Identifier: 
                keyid:42:76:C0:F8:89:0D:4B:B3:D3:D1:36:15:11:07:8C:3E:C8:82:2C:69

    Signature Algorithm: sha256WithRSAEncryption
         1f:91:e1:b5:ed:0f:8a:e6:87:c8:e8:30:3a:53:c1:5f:da:f1:
         a8:2d:a0:93:6e:c5:09:e9:81:5b:0b:51:c2:f0:19:f9:a2:10:
         58:e3:71:f9:77:f3:4c:37:af:6b:ff:d1:4f:1a:6d:19:51:5a:
         9b:df:45:5a:1e:23:d9:52:48:c9:d4:c5:49:c7:a0:47:8a:2a:
         ad:8e:49:10:05:05:03:fb:89:f1:4c:4a:69:5c:9a:07:d2:7f:
         54:73:27:d8:96:74:56:e1:cf:be:16:3f:f2:e3:72:42:69:37:
         f3:5f:a0:06:f0:d9:89:48:f4:ca:04:fd:72:ce:57:ed:72:9d:
         cb:9b:2a:dc:90:44:41:e7:10:bc:85:40:82:f4:1e:af:8d:91:
         0b:9a:5e:3a:93:cb:eb:9b:23:d1:dd:32:53:68:94:4b:09:01:
         c9:bc:e6:27:48:1e:be:49:bb:17:e7:a6:65:78:f8:c8:ac:92:
         5c:a7:1b:60:d8:c6:18:e1:21:b4:5d:3b:96:81:a3:f6:36:66:
         9c:56:85:fe:80:f6:7a:cc:71:36:96:3d:a8:af:44:e4:e7:39:
         39:51:ea:aa:8e:c3:28:f6:a9:6b:9f:5c:0d:b9:0d:52:f9:17:
         00:5f:8a:0d:78:25:1b:43:54:80:07:31:b8:a9:1a:de:3c:05:
         66:31:d9:43
-----BEGIN CERTIFICATE-----
MIIDsDCCApigAwIBAgIBBTANBgkqhkiG9w0BAQsFADBqMQswCQYDVQQGEwJDTjEL
MAkGA1UECAwCSE4xCzAJBgNVBAcMAlpaMQ0wCwYDVQQKDAQxMzAzMQwwCgYDVQQL
DANnamIxDDAKBgNVBAMMA2dqYjEWMBQGCSqGSIb3DQEJARYHMkBlLmNvbTAeFw0y
NDAzMTExMjA5NDdaFw0yNDA2MTkxMjA5NDdaMFwxCzAJBgNVBAYTAkNOMQswCQYD
VQQIDAJITjENMAsGA1UECgwEMTMwMzELMAkGA1UECwwCQkMxDDAKBgNVBAMMA3dz
bDEWMBQGCSqGSIb3DQEJARYHNUBxLmNvbTCCASIwDQYJKoZIhvcNAQEBBQADggEP
ADCCAQoCggEBAKEfEzSS/5yJCSyMBUifWw/n2d7hYzn/zTDpOxiNnlJAJxi16DoD
orlIwV2g3pUhCyUNPDtXTnpVYkwBRcxddZg+0TB52JZgnCcgeJVr45/2dXUrGJxN
zapP44lQUiigloTGgKAcJW7p0HfuzGKpcy3Dhpzgc9mgybWcVTdxlYMTA6B/rI1K
Q5+mZ22f5+93OO2zxYFon9FBTy67kuNpwf9IakuK4sAhuWxAfuYvg/RIjKZxkOsZ
kAUhujEcMl253BO+eJPU8u7ES0EWxwxGYgOmMo32Rqc0Mq2bQ4w9dowqdskq0e86
d3FdKNV5pWtcmHd1DGa6Fz2idGTNPX9geIcCAwEAAaNvMG0wIAYGKoVwcyEBBBYU
FBy+SfAzpBYUkhK8zJaB81PV1fQQMAkGA1UdEwQCMAAwHQYDVR0OBBYEFGugWOGS
nCvObv2hePiH9n5VMn2QMB8GA1UdIwQYMBaAFEJ2wPiJDUuz09E2FREHjD7Igixp
MA0GCSqGSIb3DQEBCwUAA4IBAQAfkeG17Q+K5ofI6DA6U8Ff2vGoLaCTbsUJ6YFb
C1HC8Bn5ohBY43H5d/NMN69r/9FPGm0ZUVqb30VaHiPZUkjJ1MVJx6BHiiqtjkkQ
BQUD+4nxTEppXJoH0n9UcyfYlnRW4c++Fj/y43JCaTfzX6AG8NmJSPTKBP1yzlft
cp3LmyrckERB5xC8hUCC9B6vjZELml46k8vrmyPR3TJTaJRLCQHJvOYnSB6+SbsX
56ZlePjIrJJcpxtg2MYY4SG0XTuWgaP2NmacVoX+gPZ6zHE2lj2or0Tk5zk5Ueqq
jsMo9qlrn1wNuQ1S+RcAX4oNeCUbQ1SABzG4qRrePAVmMdlD
-----END CERTIFICATE-----
